target datalayout = "e-m:e-p270:32:32-p271:32:32-p272:64:64-i64:64-i128:128-f80:128-n8:16:32:64-S128"
target triple = "x86_64-pc-linux-gnu"

%struct.__va_list_tag = type { i32, i32, ptr, ptr }

; Function Attrs: mustprogress nounwind uwtable
define dso_local noundef i32 @_ZN5cmsys11SystemTools20EstimateFormatLengthEPKcP13__va_list_tag(ptr noundef %0, ptr noundef %1) #4 align 2 {
  %3 = alloca i32, align 4
  %4 = alloca ptr, align 8
  %5 = alloca ptr, align 8
  %6 = alloca i64, align 8
  %7 = alloca ptr, align 8
  %8 = alloca ptr, align 8
  store ptr %0, ptr %4, align 8, !tbaa !13
  store ptr %1, ptr %5, align 8, !tbaa !93
  %9 = load ptr, ptr %4, align 8, !tbaa !13
  %10 = icmp ne ptr %9, null
  br i1 %10, label %12, label %11

11:                                               ; preds = %2
  store i32 0, ptr %3, align 4
  br label %107

12:                                               ; preds = %2
  call void @llvm.lifetime.start.p0(i64 8, ptr %6) #1
  %13 = load ptr, ptr %4, align 8, !tbaa !13
  %14 = call i64 @strlen(ptr noundef %13) #24
  store i64 %14, ptr %6, align 8, !tbaa !15
  call void @llvm.lifetime.start.p0(i64 8, ptr %7) #1
  %15 = load ptr, ptr %4, align 8, !tbaa !13
  store ptr %15, ptr %7, align 8, !tbaa !13
  br label %16

16:                                               ; preds = %103, %12
  %17 = load ptr, ptr %7, align 8, !tbaa !13
  %18 = load i8, ptr %17, align 1, !tbaa !16
  %19 = icmp ne i8 %18, 0
  br i1 %19, label %20, label %104

20:                                               ; preds = %16
  %21 = load ptr, ptr %7, align 8, !tbaa !13
  %22 = getelementptr inbounds nuw i8, ptr %21, i32 1
  store ptr %22, ptr %7, align 8, !tbaa !13
  %23 = load i8, ptr %21, align 1, !tbaa !16
  %24 = sext i8 %23 to i32
  %25 = icmp eq i32 %24, 37
  br i1 %25, label %26, label %103

26:                                               ; preds = %20
  %27 = load ptr, ptr %7, align 8, !tbaa !13
  %28 = load i8, ptr %27, align 1, !tbaa !16
  %29 = sext i8 %28 to i32
  %30 = icmp ne i32 %29, 37
  br i1 %30, label %31, label %100

31:                                               ; preds = %26
  br label %32

32:                                               ; preds = %39, %31
  %33 = load ptr, ptr %7, align 8, !tbaa !13
  %34 = load i8, ptr %33, align 1, !tbaa !16
  %35 = sext i8 %34 to i32
  %36 = call i32 @isalpha(i32 noundef %35) #24
  %37 = icmp ne i32 %36, 0
  %38 = xor i1 %37, true
  br i1 %38, label %39, label %42

39:                                               ; preds = %32
  %40 = load ptr, ptr %7, align 8, !tbaa !13
  %41 = getelementptr inbounds nuw i8, ptr %40, i32 1
  store ptr %41, ptr %7, align 8, !tbaa !13
  br label %32, !llvm.loop !95

42:                                               ; preds = %32
  %43 = load ptr, ptr %7, align 8, !tbaa !13
  %44 = load i8, ptr %43, align 1, !tbaa !16
  %45 = sext i8 %44 to i32
  switch i32 %45, label %85 [
    i32 115, label %46
    i32 101, label %71
    i32 102, label %71
    i32 103, label %71
  ]

46:                                               ; preds = %42
  call void @llvm.lifetime.start.p0(i64 8, ptr %8) #1
  %47 = load ptr, ptr %5, align 8, !tbaa !93
  %48 = getelementptr inbounds nuw %struct.__va_list_tag, ptr %47, i32 0, i32 0
  %49 = load i32, ptr %48, align 8
  %50 = icmp ule i32 %49, 40
  br i1 %50, label %51, label %56

51:                                               ; preds = %46
  %52 = getelementptr inbounds nuw %struct.__va_list_tag, ptr %47, i32 0, i32 3
  %53 = load ptr, ptr %52, align 8
  %54 = getelementptr i8, ptr %53, i32 %49
  %55 = add i32 %49, 8
  store i32 %55, ptr %48, align 8
  br label %60

56:                                               ; preds = %46
  %57 = getelementptr inbounds nuw %struct.__va_list_tag, ptr %47, i32 0, i32 2
  %58 = load ptr, ptr %57, align 8
  %59 = getelementptr i8, ptr %58, i32 8
  store ptr %59, ptr %57, align 8
  br label %60

60:                                               ; preds = %56, %51
  %61 = phi ptr [ %54, %51 ], [ %58, %56 ]
  %62 = load ptr, ptr %61, align 8, !tbaa !13
  store ptr %62, ptr %8, align 8, !tbaa !13
  %63 = load ptr, ptr %8, align 8, !tbaa !13
  %64 = icmp ne ptr %63, null
  br i1 %64, label %65, label %70

65:                                               ; preds = %60
  %66 = load ptr, ptr %8, align 8, !tbaa !13
  %67 = call i64 @strlen(ptr noundef %66) #24
  %68 = load i64, ptr %6, align 8, !tbaa !15
  %69 = add i64 %68, %67
  store i64 %69, ptr %6, align 8, !tbaa !15
  br label %70

70:                                               ; preds = %65, %60
  call void @llvm.lifetime.end.p0(i64 8, ptr %8) #1
  br label %99

71:                                               ; preds = %42, %42, %42
  %72 = load i64, ptr %6, align 8, !tbaa !15
  %73 = add i64 %72, 64
  store i64 %73, ptr %6, align 8, !tbaa !15
  %74 = load ptr, ptr %5, align 8, !tbaa !93
  %75 = getelementptr inbounds nuw %struct.__va_list_tag, ptr %74, i32 0, i32 1
  %76 = load i32, ptr %75, align 4
  %77 = icmp ule i32 %76, 160
  br i1 %77, label %78, label %80

78:                                               ; preds = %71
  %79 = add i32 %76, 16
  store i32 %79, ptr %75, align 4
  br label %84

80:                                               ; preds = %71
  %81 = getelementptr inbounds nuw %struct.__va_list_tag, ptr %74, i32 0, i32 2
  %82 = load ptr, ptr %81, align 8
  %83 = getelementptr i8, ptr %82, i32 8
  store ptr %83, ptr %81, align 8
  br label %84

84:                                               ; preds = %80, %78
  br label %99

85:                                               ; preds = %42
  %86 = load i64, ptr %6, align 8, !tbaa !15
  %87 = add i64 %86, 64
  store i64 %87, ptr %6, align 8, !tbaa !15
  %88 = load ptr, ptr %5, align 8, !tbaa !93
  %89 = getelementptr inbounds nuw %struct.__va_list_tag, ptr %88, i32 0, i32 0
  %90 = load i32, ptr %89, align 8
  %91 = icmp ule i32 %90, 40
  br i1 %91, label %92, label %94

92:                                               ; preds = %85
  %93 = add i32 %90, 8
  store i32 %93, ptr %89, align 8
  br label %98

94:                                               ; preds = %85
  %95 = getelementptr inbounds nuw %struct.__va_list_tag, ptr %88, i32 0, i32 2
  %96 = load ptr, ptr %95, align 8
  %97 = getelementptr i8, ptr %96, i32 8
  store ptr %97, ptr %95, align 8
  br label %98

98:                                               ; preds = %94, %92
  br label %99

99:                                               ; preds = %98, %84, %70
  br label %100

100:                                              ; preds = %99, %26
  %101 = load ptr, ptr %7, align 8, !tbaa !13
  %102 = getelementptr inbounds nuw i8, ptr %101, i32 1
  store ptr %102, ptr %7, align 8, !tbaa !13
  br label %103

103:                                              ; preds = %100, %20
  br label %16, !llvm.loop !96

104:                                              ; preds = %16
  %105 = load i64, ptr %6, align 8, !tbaa !15
  %106 = trunc i64 %105 to i32
  store i32 %106, ptr %3, align 4
  call void @llvm.lifetime.end.p0(i64 8, ptr %7) #1
  call void @llvm.lifetime.end.p0(i64 8, ptr %6) #1
  br label %107

107:                                              ; preds = %104, %11
  %108 = load i32, ptr %3, align 4
  ret i32 %108
}