; Function Attrs: mustprogress nofree nounwind memory(read, argmem: readwrite) uwtable
define dso_local noundef i32 @_ZN5cmsys11SystemTools20EstimateFormatLengthEPKcP13__va_list_tag(ptr noundef readonly %0, ptr noundef captures(none) %1) local_unnamed_addr #24 align 2 {
  %.not = icmp eq ptr %0, null
  br i1 %.not, label %60, label %3

3:                                                ; preds = %2
  %4 = tail call i64 @strlen(ptr noundef nonnull dereferenceable(1) %0) #43
  %5 = load i8, ptr %0, align 1, !tbaa !20
  %.not3037 = icmp eq i8 %5, 0
  br i1 %.not3037, label %._crit_edge42, label %.lr.ph41

.lr.ph41:                                         ; preds = %3
  %6 = getelementptr inbounds nuw i8, ptr %1, i64 4
  %7 = getelementptr inbounds nuw i8, ptr %1, i64 8
  %8 = getelementptr inbounds nuw i8, ptr %1, i64 16
  br label %9

9:                                                ; preds = %.lr.ph41, %57
  %10 = phi i8 [ %5, %.lr.ph41 ], [ %58, %57 ]
  %.01939 = phi ptr [ %0, %.lr.ph41 ], [ %.1, %57 ]
  %.02038 = phi i64 [ %4, %.lr.ph41 ], [ %.121, %57 ]
  %11 = getelementptr inbounds nuw i8, ptr %.01939, i64 1
  %12 = icmp eq i8 %10, 37
  br i1 %12, label %13, label %57

13:                                               ; preds = %9
  %14 = load i8, ptr %11, align 1, !tbaa !20
  %.not31 = icmp eq i8 %14, 37
  br i1 %.not31, label %55, label %.preheader

.preheader:                                       ; preds = %13
  %15 = sext i8 %14 to i32
  %16 = tail call i32 @isalpha(i32 noundef %15) #43
  %.not3234 = icmp eq i32 %16, 0
  br i1 %.not3234, label %.lr.ph, label %._crit_edge

.lr.ph:                                           ; preds = %.preheader, %.lr.ph
  %.335 = phi ptr [ %17, %.lr.ph ], [ %11, %.preheader ]
  %17 = getelementptr inbounds nuw i8, ptr %.335, i64 1
  %.pr = load i8, ptr %17, align 1, !tbaa !20
  %18 = sext i8 %.pr to i32
  %19 = tail call i32 @isalpha(i32 noundef %18) #43
  %.not32 = icmp eq i32 %19, 0
  br i1 %.not32, label %.lr.ph, label %._crit_edge, !llvm.loop !82

._crit_edge:                                      ; preds = %.lr.ph, %.preheader
  %.lcssa = phi i8 [ %14, %.preheader ], [ %.pr, %.lr.ph ]
  %.3.lcssa = phi ptr [ %11, %.preheader ], [ %17, %.lr.ph ]
  switch i8 %.lcssa, label %46 [
    i8 115, label %20
    i8 101, label %37
    i8 102, label %37
    i8 103, label %37
  ]

20:                                               ; preds = %._crit_edge
  %21 = load i32, ptr %1, align 8
  %22 = icmp ult i32 %21, 41
  br i1 %22, label %23, label %28

23:                                               ; preds = %20
  %24 = load ptr, ptr %8, align 8
  %25 = zext nneg i32 %21 to i64
  %26 = getelementptr i8, ptr %24, i64 %25
  %27 = add nuw nsw i32 %21, 8
  store i32 %27, ptr %1, align 8
  br label %31

28:                                               ; preds = %20
  %29 = load ptr, ptr %7, align 8
  %30 = getelementptr i8, ptr %29, i64 8
  store ptr %30, ptr %7, align 8
  br label %31

31:                                               ; preds = %28, %23
  %32 = phi ptr [ %26, %23 ], [ %29, %28 ]
  %33 = load ptr, ptr %32, align 8, !tbaa !83
  %.not33 = icmp eq ptr %33, null
  br i1 %.not33, label %55, label %34

34:                                               ; preds = %31
  %35 = tail call i64 @strlen(ptr noundef nonnull dereferenceable(1) %33) #43
  %36 = add i64 %35, %.02038
  br label %55

37:                                               ; preds = %._crit_edge, %._crit_edge, %._crit_edge
  %38 = add i64 %.02038, 64
  %39 = load i32, ptr %6, align 4
  %40 = icmp ult i32 %39, 161
  br i1 %40, label %41, label %43

41:                                               ; preds = %37
  %42 = add nuw nsw i32 %39, 16
  store i32 %42, ptr %6, align 4
  br label %55

43:                                               ; preds = %37
  %44 = load ptr, ptr %7, align 8
  %45 = getelementptr i8, ptr %44, i64 8
  store ptr %45, ptr %7, align 8
  br label %55

46:                                               ; preds = %._crit_edge
  %47 = add i64 %.02038, 64
  %48 = load i32, ptr %1, align 8
  %49 = icmp ult i32 %48, 41
  br i1 %49, label %50, label %52

50:                                               ; preds = %46
  %51 = add nuw nsw i32 %48, 8
  store i32 %51, ptr %1, align 8
  br label %55

52:                                               ; preds = %46
  %53 = load ptr, ptr %7, align 8
  %54 = getelementptr i8, ptr %53, i64 8
  store ptr %54, ptr %7, align 8
  br label %55

55:                                               ; preds = %31, %34, %43, %41, %52, %50, %13
  %.222 = phi i64 [ %47, %50 ], [ %47, %52 ], [ %38, %41 ], [ %38, %43 ], [ %.02038, %13 ], [ %36, %34 ], [ %.02038, %31 ]
  %.2 = phi ptr [ %.3.lcssa, %50 ], [ %.3.lcssa, %52 ], [ %.3.lcssa, %41 ], [ %.3.lcssa, %43 ], [ %11, %13 ], [ %.3.lcssa, %34 ], [ %.3.lcssa, %31 ]
  %56 = getelementptr inbounds nuw i8, ptr %.2, i64 1
  br label %57

57:                                               ; preds = %55, %9
  %.121 = phi i64 [ %.222, %55 ], [ %.02038, %9 ]
  %.1 = phi ptr [ %56, %55 ], [ %11, %9 ]
  %58 = load i8, ptr %.1, align 1, !tbaa !20
  %.not30 = icmp eq i8 %58, 0
  br i1 %.not30, label %._crit_edge42, label %9, !llvm.loop !84

._crit_edge42:                                    ; preds = %57, %3
  %.020.lcssa = phi i64 [ %4, %3 ], [ %.121, %57 ]
  %59 = trunc i64 %.020.lcssa to i32
  br label %60

60:                                               ; preds = %2, %._crit_edge42
  %.0 = phi i32 [ %59, %._crit_edge42 ], [ 0, %2 ]
  ret i32 %.0
}